target datalayout = "e-m:e-p270:32:32-p271:32:32-p272:64:64-i64:64-i128:128-f80:128-n8:16:32:64-S128"
target triple = "x86_64-pc-linux-gnu"

@.str.3 = private unnamed_addr constant [2 x i8] c"\0A\00", align 1
@.str.4 = private unnamed_addr constant [35 x i8] c"    wreduce [options] [selection]\0A\00", align 1
@.str.5 = private unnamed_addr constant [79 x i8] c"This command reduces the word size of operations. For example it will replace\0A\00", align 1
@.str.6 = private unnamed_addr constant [81 x i8] c"the 32 bit adders in the following code with adders of more appropriate widths:\0A\00", align 1
@.str.7 = private unnamed_addr constant [55 x i8] c"    module test(input [3:0] a, b, c, output [7:0] y);\0A\00", align 1
@.str.8 = private unnamed_addr constant [35 x i8] c"        assign y = a + b + c + 1;\0A\00", align 1
@.str.9 = private unnamed_addr constant [15 x i8] c"    endmodule\0A\00", align 1
@.str.10 = private unnamed_addr constant [10 x i8] c"Options:\0A\00", align 1
@.str.11 = private unnamed_addr constant [11 x i8] c"    -memx\0A\00", align 1
@.str.12 = private unnamed_addr constant [78 x i8] c"        Do not change the width of memory address ports. Use this options in\0A\00", align 1
@.str.13 = private unnamed_addr constant [48 x i8] c"        flows that use the 'memory_memx' pass.\0A\00", align 1
@.str.14 = private unnamed_addr constant [16 x i8] c"    -mux_undef\0A\00", align 1
@.str.15 = private unnamed_addr constant [65 x i8] c"        remove 'undef' inputs from $mux, $pmux and $_MUX_ cells\0A\00", align 1
@.str.16 = private unnamed_addr constant [13 x i8] c"    -keepdc\0A\00", align 1
@.str.17 = private unnamed_addr constant [53 x i8] c"        Do not optimize explicit don't-care values.\0A\00", align 1

; Function Attrs: mustprogress uwtable
define internal void @_ZN12_GLOBAL__N_111WreducePass4helpEv(ptr noundef nonnull align 8 dereferenceable(104) %0) unnamed_addr #4 align 2 {
  %2 = alloca ptr, align 8
  store ptr %0, ptr %2, align 8
  call void (ptr, ...) @_ZN5Yosys3logEPKcz(ptr noundef @.str.3)
  call void (ptr, ...) @_ZN5Yosys3logEPKcz(ptr noundef @.str.4)
  call void (ptr, ...) @_ZN5Yosys3logEPKcz(ptr noundef @.str.3)
  call void (ptr, ...) @_ZN5Yosys3logEPKcz(ptr noundef @.str.5)
  call void (ptr, ...) @_ZN5Yosys3logEPKcz(ptr noundef @.str.6)
  call void (ptr, ...) @_ZN5Yosys3logEPKcz(ptr noundef @.str.3)
  call void (ptr, ...) @_ZN5Yosys3logEPKcz(ptr noundef @.str.7)
  call void (ptr, ...) @_ZN5Yosys3logEPKcz(ptr noundef @.str.8)
  call void (ptr, ...) @_ZN5Yosys3logEPKcz(ptr noundef @.str.9)
  call void (ptr, ...) @_ZN5Yosys3logEPKcz(ptr noundef @.str.3)
  call void (ptr, ...) @_ZN5Yosys3logEPKcz(ptr noundef @.str.10)
  call void (ptr, ...) @_ZN5Yosys3logEPKcz(ptr noundef @.str.3)
  call void (ptr, ...) @_ZN5Yosys3logEPKcz(ptr noundef @.str.11)
  call void (ptr, ...) @_ZN5Yosys3logEPKcz(ptr noundef @.str.12)
  call void (ptr, ...) @_ZN5Yosys3logEPKcz(ptr noundef @.str.13)
  call void (ptr, ...) @_ZN5Yosys3logEPKcz(ptr noundef @.str.3)
  call void (ptr, ...) @_ZN5Yosys3logEPKcz(ptr noundef @.str.14)
  call void (ptr, ...) @_ZN5Yosys3logEPKcz(ptr noundef @.str.15)
  call void (ptr, ...) @_ZN5Yosys3logEPKcz(ptr noundef @.str.3)
  call void (ptr, ...) @_ZN5Yosys3logEPKcz(ptr noundef @.str.16)
  call void (ptr, ...) @_ZN5Yosys3logEPKcz(ptr noundef @.str.17)
  call void (ptr, ...) @_ZN5Yosys3logEPKcz(ptr noundef @.str.3)
  ret void
}